; Function Attrs: mustprogress uwtable
define noundef double @_ZNK8QuantLib24YoYInflationCouponPricer14adjustedFixingEd(ptr nocapture noundef nonnull readonly align 8 dereferenceable(80) %this, double noundef %fixing) unnamed_addr #8 align 2 {
entry:
  %cmp = fcmp oeq double %fixing, 0x47EFFFFFE0000000
  br i1 %cmp, label %if.then, label %if.end

if.then:                                          ; preds = %entry
  %coupon_ = getelementptr inbounds nuw i8, ptr %this, i64 48
  %0 = load ptr, ptr %coupon_, align 8, !tbaa !98
  %vtable = load ptr, ptr %0, align 8, !tbaa !35
  %vfn = getelementptr inbounds i8, ptr %vtable, i64 104
  %1 = load ptr, ptr %vfn, align 8
  %call2 = tail call noundef double %1(ptr noundef nonnull align 8 dereferenceable(160) %0)
  br label %if.end

if.end:                                           ; preds = %if.then, %entry
  %fixing.addr.0 = phi double [ %call2, %if.then ], [ %fixing, %entry ]
  ret double %fixing.addr.0
}